(dp1
S'df9'
p2
(lp3
S'L3_S38_F3952'
p4
aS'L3_S38_F3956'
p5
aS'L3_S38_F3960'
p6
asS'df8'
p7
(lp8
S'L0_S0_F0'
p9
aS'L0_S0_F2'
p10
aS'L0_S0_F4'
p11
aS'L0_S0_F6'
p12
aS'L0_S0_F8'
p13
aS'L0_S0_F10'
p14
aS'L0_S0_F12'
p15
aS'L0_S0_F14'
p16
aS'L0_S0_F16'
p17
aS'L0_S0_F18'
p18
aS'L0_S0_F20'
p19
aS'L0_S0_F22'
p20
asS'df5'
p21
(lp22
S'L2_S28_F3222'
p23
aS'L2_S28_F3226'
p24
aS'L2_S28_F3233'
p25
aS'L2_S28_F3237'
p26
aS'L2_S28_F3241'
p27
aS'L2_S28_F3248'
p28
aS'L2_S28_F3255'
p29
aS'L2_S28_F3259'
p30
aS'L2_S28_F3263'
p31
aS'L2_S28_F3292'
p32
aS'L2_S28_F3299'
p33
aS'L2_S28_F3303'
p34
aS'L2_S28_F3307'
p35
aS'L2_S28_F3311'
p36
asS'df4'
p37
(lp38
S'L1_S25_F1978'
p39
aS'L1_S25_F1987'
p40
aS'L1_S25_F1992'
p41
aS'L1_S25_F1997'
p42
aS'L1_S25_F2002'
p43
aS'L1_S25_F2007'
p44
aS'L1_S25_F2016'
p45
aS'L1_S25_F2021'
p46
aS'L1_S25_F2026'
p47
aS'L1_S25_F2031'
p48
aS'L1_S25_F2036'
p49
aS'L1_S25_F2041'
p50
aS'L1_S25_F2046'
p51
aS'L1_S25_F2051'
p52
asS'df7'
p53
(lp54
S'L2_S27_F3199'
p55
aS'L2_S27_F3206'
p56
aS'L2_S27_F3210'
p57
aS'L2_S27_F3214'
p58
aS'L2_S27_F3218'
p59
aS'L2_S27_F3129'
p60
aS'L2_S27_F3133'
p61
aS'L2_S27_F3140'
p62
aS'L2_S27_F3144'
p63
aS'L2_S27_F3148'
p64
aS'L2_S27_F3155'
p65
aS'L2_S27_F3162'
p66
aS'L2_S27_F3166'
p67
aS'L2_S27_F3170'
p68
asS'df6'
p69
(lp70
S'L1_S24_F1512'
p71
aS'L1_S24_F1514'
p72
aS'L1_S24_F1516'
p73
aS'L1_S24_F1518'
p74
aS'L1_S24_F1520'
p75
aS'L1_S24_F1539'
p76
aS'L1_S24_F1544'
p77
aS'L1_S24_F1672'
p78
aS'L1_S24_F1685'
p79
aS'L1_S24_F1690'
p80
aS'L1_S24_F1695'
p81
aS'L1_S24_F1700'
p82
aS'L1_S24_F1713'
p83
aS'L1_S24_F1718'
p84
aS'L1_S24_F1723'
p85
aS'L1_S24_F1728'
p86
aS'L1_S24_F1733'
p87
aS'L1_S24_F1738'
p88
aS'L1_S24_F1743'
p89
aS'L1_S24_F1748'
p90
aS'L1_S24_F1753'
p91
aS'L1_S24_F1758'
p92
asS'df1'
p93
(lp94
S'L3_S41_F3996'
p95
aS'L3_S41_F3998'
p96
aS'L3_S41_F4000'
p97
aS'L3_S41_F4002'
p98
aS'L3_S41_F4004'
p99
aS'L3_S41_F4006'
p100
aS'L3_S41_F4008'
p101
aS'L3_S41_F4011'
p102
aS'L3_S41_F4014'
p103
aS'L3_S41_F4016'
p104
aS'L3_S41_F4018'
p105
aS'L3_S41_F4020'
p106
aS'L3_S41_F4023'
p107
aS'L3_S41_F4026'
p108
asS'df3'
p109
(lp110
S'L1_S24_F1667'
p111
aS'L1_S24_F1581'
p112
aS'L1_S24_F1594'
p113
aS'L1_S24_F1599'
p114
aS'L1_S24_F1604'
p115
aS'L1_S24_F1609'
p116
aS'L1_S24_F1622'
p117
aS'L1_S24_F1627'
p118
aS'L1_S24_F1632'
p119
aS'L1_S24_F1637'
p120
aS'L1_S24_F1642'
p121
aS'L1_S24_F1647'
p122
aS'L1_S24_F1652'
p123
aS'L1_S24_F1657'
p124
aS'L1_S24_F1662'
p125
asS'df2'
p126
(lp127
S'L0_S23_F643'
p128
aS'L0_S23_F647'
p129
aS'L0_S23_F651'
p130
aS'L0_S23_F655'
p131
aS'L0_S23_F659'
p132
aS'L0_S23_F663'
p133
aS'L0_S23_F667'
p134
aS'L0_S23_F671'
p135
aS'L0_S23_F619'
p136
aS'L0_S23_F623'
p137
aS'L0_S23_F627'
p138
aS'L0_S23_F631'
p139
aS'L0_S23_F635'
p140
aS'L0_S23_F639'
p141
asS'df19'
p142
(lp143
S'L0_S10_F254'
p144
aS'L0_S10_F259'
p145
aS'L0_S10_F264'
p146
aS'L0_S10_F269'
p147
aS'L0_S10_F274'
p148
aS'L0_S10_F219'
p149
aS'L0_S10_F224'
p150
aS'L0_S10_F229'
p151
aS'L0_S10_F234'
p152
aS'L0_S10_F239'
p153
aS'L0_S10_F244'
p154
aS'L0_S10_F249'
p155
asS'df18'
p156
(lp157
S'L0_S11_F282'
p158
aS'L0_S11_F286'
p159
aS'L0_S11_F290'
p160
aS'L0_S11_F294'
p161
aS'L0_S11_F298'
p162
aS'L0_S11_F302'
p163
aS'L0_S11_F306'
p164
aS'L0_S11_F310'
p165
aS'L0_S11_F314'
p166
aS'L0_S11_F318'
p167
aS'L0_S11_F322'
p168
aS'L0_S11_F326'
p169
asS'df11'
p170
(lp171
S'L0_S22_F546'
p172
aS'L0_S22_F551'
p173
aS'L0_S22_F556'
p174
aS'L0_S22_F561'
p175
aS'L0_S22_F566'
p176
aS'L0_S22_F571'
p177
aS'L0_S22_F576'
p178
aS'L0_S22_F581'
p179
aS'L0_S22_F586'
p180
aS'L0_S22_F591'
p181
aS'L0_S22_F596'
p182
aS'L0_S22_F601'
p183
aS'L0_S22_F606'
p184
aS'L0_S22_F611'
p185
asS'df10'
p186
(lp187
S'L1_S25_F1943'
p188
aS'L1_S25_F1948'
p189
aS'L1_S25_F1953'
p190
aS'L1_S25_F1958'
p191
aS'L1_S25_F1963'
p192
aS'L1_S25_F1968'
p193
aS'L1_S25_F1973'
p194
aS'L1_S25_F1900'
p195
aS'L1_S25_F1909'
p196
aS'L1_S25_F1914'
p197
aS'L1_S25_F1919'
p198
aS'L1_S25_F1924'
p199
aS'L1_S25_F1929'
p200
aS'L1_S25_F1938'
p201
asS'df13'
p202
(lp203
S'L3_S30_F3564'
p204
aS'L3_S30_F3569'
p205
aS'L3_S30_F3574'
p206
aS'L3_S30_F3579'
p207
aS'L3_S30_F3584'
p208
aS'L3_S30_F3589'
p209
aS'L3_S30_F3594'
p210
aS'L3_S30_F3599'
p211
aS'L3_S30_F3604'
p212
aS'L3_S30_F3609'
p213
aS'L3_S30_F3614'
p214
aS'L3_S30_F3619'
p215
aS'L3_S30_F3624'
p216
aS'L3_S30_F3629'
p217
aS'L3_S30_F3634'
p218
aS'L3_S30_F3639'
p219
aS'L3_S30_F3644'
p220
aS'L3_S30_F3649'
p221
aS'L3_S30_F3654'
p222
aS'L3_S30_F3659'
p223
aS'L3_S30_F3664'
p224
aS'L3_S30_F3669'
p225
aS'L3_S30_F3674'
p226
aS'L3_S30_F3679'
p227
aS'L3_S30_F3684'
p228
aS'L3_S30_F3689'
p229
aS'L3_S30_F3694'
p230
aS'L3_S30_F3699'
p231
aS'L3_S30_F3704'
p232
aS'L3_S30_F3709'
p233
aS'L3_S30_F3714'
p234
aS'L3_S30_F3719'
p235
asS'df12'
p236
(lp237
S'L0_S21_F482'
p238
aS'L0_S21_F487'
p239
aS'L0_S21_F492'
p240
aS'L0_S21_F497'
p241
aS'L0_S21_F502'
p242
aS'L0_S21_F507'
p243
aS'L0_S21_F512'
p244
aS'L0_S21_F517'
p245
aS'L0_S21_F522'
p246
aS'L0_S21_F527'
p247
aS'L0_S21_F532'
p248
aS'L0_S21_F537'
p249
aS'L0_S21_F472'
p250
aS'L0_S21_F477'
p251
asS'df15'
p252
(lp253
S'L3_S30_F3774'
p254
aS'L3_S30_F3779'
p255
aS'L3_S30_F3784'
p256
aS'L3_S30_F3789'
p257
aS'L3_S30_F3794'
p258
aS'L3_S30_F3799'
p259
aS'L3_S30_F3804'
p260
aS'L3_S30_F3809'
p261
aS'L3_S30_F3814'
p262
aS'L3_S30_F3819'
p263
aS'L3_S30_F3824'
p264
aS'L3_S30_F3829'
p265
aS'L3_S30_F3499'
p266
aS'L3_S30_F3494'
p267
aS'L3_S30_F3724'
p268
aS'L3_S30_F3729'
p269
aS'L3_S30_F3734'
p270
aS'L3_S30_F3739'
p271
aS'L3_S30_F3764'
p272
aS'L3_S30_F3769'
p273
asS'df14'
p274
(lp275
S'L3_S29_F3470'
p276
aS'L3_S29_F3473'
p277
aS'L3_S29_F3476'
p278
aS'L3_S29_F3479'
p279
aS'L3_S29_F3482'
p280
aS'L3_S29_F3485'
p281
aS'L3_S29_F3488'
p282
aS'L3_S29_F3491'
p283
aS'L3_S29_F3315'
p284
aS'L3_S29_F3318'
p285
aS'L3_S29_F3321'
p286
aS'L3_S29_F3324'
p287
aS'L3_S29_F3327'
p288
aS'L3_S29_F3330'
p289
aS'L3_S29_F3333'
p290
aS'L3_S29_F3336'
p291
aS'L3_S29_F3339'
p292
aS'L3_S29_F3342'
p293
aS'L3_S29_F3345'
p294
aS'L3_S29_F3348'
p295
aS'L3_S29_F3351'
p296
aS'L3_S29_F3354'
p297
aS'L3_S29_F3357'
p298
aS'L3_S29_F3360'
p299
aS'L3_S29_F3367'
p300
aS'L3_S29_F3370'
p301
aS'L3_S29_F3373'
p302
aS'L3_S29_F3376'
p303
aS'L3_S29_F3379'
p304
aS'L3_S29_F3382'
p305
aS'L3_S29_F3385'
p306
aS'L3_S29_F3388'
p307
aS'L3_S29_F3395'
p308
aS'L3_S29_F3398'
p309
aS'L3_S29_F3401'
p310
aS'L3_S29_F3404'
p311
aS'L3_S29_F3407'
p312
aS'L3_S29_F3412'
p313
aS'L3_S29_F3421'
p314
aS'L3_S29_F3424'
p315
aS'L3_S29_F3427'
p316
aS'L3_S29_F3430'
p317
aS'L3_S29_F3433'
p318
aS'L3_S29_F3436'
p319
aS'L3_S29_F3439'
p320
aS'L3_S29_F3442'
p321
aS'L3_S29_F3449'
p322
aS'L3_S29_F3452'
p323
aS'L3_S29_F3455'
p324
aS'L3_S29_F3458'
p325
aS'L3_S29_F3461'
p326
aS'L3_S29_F3464'
p327
aS'L3_S29_F3467'
p328
asS'df17'
p329
(lp330
S'L0_S9_F155'
p331
aS'L0_S9_F160'
p332
aS'L0_S9_F165'
p333
aS'L0_S9_F170'
p334
aS'L0_S9_F175'
p335
aS'L0_S9_F180'
p336
aS'L0_S9_F185'
p337
aS'L0_S9_F190'
p338
aS'L0_S9_F195'
p339
aS'L0_S9_F200'
p340
aS'L0_S9_F205'
p341
aS'L0_S9_F210'
p342
asS'df16'
p343
(lp344
S'L2_S26_F3036'
p345
aS'L2_S26_F3040'
p346
aS'L2_S26_F3047'
p347
aS'L2_S26_F3051'
p348
aS'L2_S26_F3055'
p349
aS'L2_S26_F3062'
p350
aS'L2_S26_F3069'
p351
aS'L2_S26_F3073'
p352
aS'L2_S26_F3077'
p353
aS'L2_S26_F3106'
p354
aS'L2_S26_F3113'
p355
aS'L2_S26_F3117'
p356
aS'L2_S26_F3121'
p357
aS'L2_S26_F3125'
p358
as.